; Function Attrs: nounwind uwtable
define internal noundef ptr @clear_dict_watcher(ptr readnone captures(none) %0, ptr noundef %1) #0 {
  %3 = tail call i64 @PyLong_AsLong(ptr noundef %1) #6
  %4 = trunc i64 %3 to i32
  %5 = tail call i32 @PyDict_ClearWatcher(i32 noundef %4) #6
  %.not = icmp eq i32 %5, 0
  br i1 %.not, label %6, label %Py_DECREF.exit

6:                                                ; preds = %2
  %7 = load i32, ptr @g_dict_watchers_installed, align 4, !tbaa !20
  %8 = add i32 %7, -1
  store i32 %8, ptr @g_dict_watchers_installed, align 4, !tbaa !20
  %.not7 = icmp eq i32 %8, 0
  br i1 %.not7, label %9, label %Py_DECREF.exit

9:                                                ; preds = %6
  %10 = load ptr, ptr @g_dict_watch_events, align 8, !tbaa !21
  %.not8 = icmp eq ptr %10, null
  br i1 %.not8, label %11, label %12

11:                                               ; preds = %9
  tail call void @__assert_fail(ptr noundef nonnull @.str.44, ptr noundef nonnull @.str.32, i32 noundef 127, ptr noundef nonnull @__PRETTY_FUNCTION__.clear_dict_watcher) #7
  unreachable

12:                                               ; preds = %9
  store ptr null, ptr @g_dict_watch_events, align 8, !tbaa !21
  %13 = load i32, ptr %10, align 8, !tbaa !22
  %.not.i = icmp sgt i32 %13, -1
  br i1 %.not.i, label %14, label %Py_DECREF.exit

14:                                               ; preds = %12
  %15 = add nsw i32 %13, -1
  store i32 %15, ptr %10, align 8, !tbaa !22
  %16 = icmp eq i32 %15, 0
  br i1 %16, label %17, label %Py_DECREF.exit

17:                                               ; preds = %14
  tail call void @_Py_Dealloc(ptr noundef nonnull %10) #6
  br label %Py_DECREF.exit

Py_DECREF.exit:                                   ; preds = %17, %14, %12, %6, %2
  %.0 = phi ptr [ null, %2 ], [ @_Py_NoneStruct, %6 ], [ @_Py_NoneStruct, %12 ], [ @_Py_NoneStruct, %14 ], [ @_Py_NoneStruct, %17 ]
  ret ptr %.0
}